; Function Attrs: mustprogress nofree norecurse nosync nounwind willreturn memory(argmem: readwrite) uwtable
define void @_ZN3net17QuicPacketCreator29MaybeUpdatePacketNumberLengthEv(ptr noundef nonnull align 8 captures(none) dereferenceable(312) %0) local_unnamed_addr #8 align 2 {
  %2 = getelementptr inbounds nuw i8, ptr %0, i64 120
  %3 = load ptr, ptr %2, align 8, !tbaa !88
  %4 = getelementptr inbounds nuw i8, ptr %0, i64 128
  %5 = load ptr, ptr %4, align 8, !tbaa !88
  %6 = icmp eq ptr %3, %5
  br i1 %6, label %7, label %11

7:                                                ; preds = %1
  %8 = getelementptr inbounds nuw i8, ptr %0, i64 58
  %9 = load i8, ptr %8, align 2, !tbaa !74
  %10 = getelementptr inbounds nuw i8, ptr %0, i64 216
  store i8 %9, ptr %10, align 8, !tbaa !89
  br label %11

11:                                               ; preds = %1, %7
  ret void
}